; Function Attrs: mustprogress uwtable
define internal fastcc void @_ZN12_GLOBAL__N_116getDerivedGenderEN6icu_756LocaleEPKcPNS0_13UnicodeStringES5_R10UErrorCode(ptr noalias align 8 %agg.result, ptr noundef nonnull %locale, ptr noundef %structure, ptr noundef %data0, ptr noundef %data1, ptr noundef nonnull align 4 dereferenceable(4) %status) unnamed_addr #1 personality ptr @__gxx_personality_v0 {
entry:
  %val = alloca %"class.icu_75::UnicodeString", align 8
  %agg.tmp = alloca %"class.icu_75::Locale", align 8
  call void @_ZN6icu_756LocaleC1ERKS0_(ptr noundef nonnull align 8 dereferenceable(217) %agg.tmp, ptr noundef nonnull align 8 dereferenceable(217) %locale)
  invoke fastcc void @_ZN12_GLOBAL__N_121getDeriveCompoundRuleEN6icu_756LocaleEPKcS3_R10UErrorCode(ptr noalias nonnull align 8 %val, ptr noundef nonnull %agg.tmp, ptr noundef %structure, ptr noundef nonnull align 4 dereferenceable(4) %status)
          to label %invoke.cont2 unwind label %lpad

invoke.cont2:                                     ; preds = %entry
  call void @_ZN6icu_756LocaleD1Ev(ptr noundef nonnull align 8 dereferenceable(217) %agg.tmp) #18
  %fUnion.i.i = getelementptr inbounds i8, ptr %val, i64 8
  %0 = load i16, ptr %fUnion.i.i, align 8
  %cmp.i.i = icmp slt i16 %0, 0
  %1 = ashr i16 %0, 5
  %shr.i.i = sext i16 %1 to i32
  %fLength.i = getelementptr inbounds i8, ptr %val, i64 12
  %2 = load i32, ptr %fLength.i, align 4
  %cond.i = select i1 %cmp.i.i, i32 %2, i32 %shr.i.i
  %cmp = icmp eq i32 %cond.i, 1
  br i1 %cmp, label %invoke.cont3, label %if.end12

invoke.cont3:                                     ; preds = %invoke.cont2
  %3 = and i16 %0, 2
  %tobool.not.i.i.i = icmp eq i16 %3, 0
  %fBuffer.i.i.i = getelementptr inbounds i8, ptr %val, i64 10
  %fArray.i.i.i = getelementptr inbounds i8, ptr %val, i64 24
  %4 = load ptr, ptr %fArray.i.i.i, align 8
  %cond.i2.i.i = select i1 %tobool.not.i.i.i, ptr %4, ptr %fBuffer.i.i.i
  %5 = load i16, ptr %cond.i2.i.i, align 2
  switch i16 %5, label %if.end12 [
    i16 48, label %if.end.invoke
    i16 49, label %sw.bb6
  ]

lpad:                                             ; preds = %entry
  %6 = landingpad { ptr, i32 }
          cleanup
  call void @_ZN6icu_756LocaleD1Ev(ptr noundef nonnull align 8 dereferenceable(217) %agg.tmp) #18
  br label %eh.resume

lpad1:                                            ; preds = %if.end.invoke
  %7 = landingpad { ptr, i32 }
          cleanup
  call void @_ZN6icu_7513UnicodeStringD1Ev(ptr noundef nonnull align 8 dereferenceable(64) %val) #18
  br label %eh.resume

sw.bb6:                                           ; preds = %invoke.cont3
  %cmp7 = icmp eq ptr %data1, null
  br i1 %cmp7, label %if.then8, label %if.end.invoke

if.then8:                                         ; preds = %sw.bb6
  store ptr getelementptr inbounds ({ [13 x ptr] }, ptr @_ZTVN6icu_7513UnicodeStringE, i64 0, i32 0, i64 2), ptr %agg.result, align 8
  %fUnion2.i = getelementptr inbounds i8, ptr %agg.result, i64 8
  store i16 2, ptr %fUnion2.i, align 8
  br label %cleanup

if.end.invoke:                                    ; preds = %sw.bb6, %invoke.cont3
  %data0.sink = phi ptr [ %data0, %invoke.cont3 ], [ %data1, %sw.bb6 ]
  %arrayidx = getelementptr inbounds i8, ptr %data0.sink, i64 640
  invoke void @_ZN6icu_7513UnicodeStringC1ERKS0_(ptr noundef nonnull align 8 dereferenceable(64) %agg.result, ptr noundef nonnull align 8 dereferenceable(64) %arrayidx)
          to label %cleanup unwind label %lpad1

if.end12:                                         ; preds = %invoke.cont3, %invoke.cont2
  call void @_ZN6icu_7513UnicodeStringC1EOS0_(ptr noundef nonnull align 8 dereferenceable(64) %agg.result, ptr noundef nonnull align 8 dereferenceable(64) %val) #18
  br label %cleanup

cleanup:                                          ; preds = %if.end.invoke, %if.then8, %if.end12
  call void @_ZN6icu_7513UnicodeStringD1Ev(ptr noundef nonnull align 8 dereferenceable(64) %val) #18
  ret void

eh.resume:                                        ; preds = %lpad1, %lpad
  %.pn = phi { ptr, i32 } [ %7, %lpad1 ], [ %6, %lpad ]
  resume { ptr, i32 } %.pn
}